; Function Attrs: mustprogress nofree norecurse nosync nounwind willreturn memory(argmem: readwrite) uwtable
define hidden void @_ZN12opencv_caffe16SigmoidParameter12InternalSwapEPS0_(ptr noundef nonnull align 8 captures(none) dereferenceable(32) %0, ptr noundef captures(none) %1) local_unnamed_addr #13 align 2 {
  %3 = getelementptr inbounds nuw i8, ptr %0, i64 8
  %4 = getelementptr inbounds nuw i8, ptr %1, i64 8
  %5 = load i64, ptr %3, align 8, !tbaa !42
  %6 = load i64, ptr %4, align 8, !tbaa !42
  store i64 %6, ptr %3, align 8, !tbaa !42
  store i64 %5, ptr %4, align 8, !tbaa !42
  %7 = getelementptr inbounds nuw i8, ptr %0, i64 16
  %8 = getelementptr inbounds nuw i8, ptr %1, i64 16
  %9 = load i32, ptr %7, align 8, !tbaa !71
  %10 = load i32, ptr %8, align 4, !tbaa !71
  store i32 %10, ptr %7, align 8, !tbaa !71
  store i32 %9, ptr %8, align 4, !tbaa !71
  %11 = getelementptr inbounds nuw i8, ptr %0, i64 24
  %12 = getelementptr inbounds nuw i8, ptr %1, i64 24
  %13 = load i32, ptr %11, align 8, !tbaa !71
  %14 = load i32, ptr %12, align 4, !tbaa !71
  store i32 %14, ptr %11, align 8, !tbaa !71
  store i32 %13, ptr %12, align 4, !tbaa !71
  ret void
}